target datalayout = "e-m:e-p270:32:32-p271:32:32-p272:64:64-i64:64-i128:128-f80:128-n8:16:32:64-S128"
target triple = "x86_64-pc-linux-gnu"

%struct.unim_index = type { ptr, i8, i8 }

; Function Attrs: inlinehint nounwind uwtable
define internal i32 @PyUnicode_READ(i32 noundef %0, ptr noundef %1, i64 noundef %2) #2 {
  %4 = alloca i32, align 4
  %5 = alloca i32, align 4
  %6 = alloca ptr, align 8
  %7 = alloca i64, align 8
  store i32 %0, ptr %5, align 4, !tbaa !19
  store ptr %1, ptr %6, align 8, !tbaa !3
  store i64 %2, ptr %7, align 8, !tbaa !28
  %8 = load i32, ptr %5, align 4, !tbaa !19
  %9 = icmp eq i32 %8, 1
  br i1 %9, label %10, label %16

10:                                               ; preds = %3
  %11 = load ptr, ptr %6, align 8, !tbaa !3
  %12 = load i64, ptr %7, align 8, !tbaa !28
  %13 = getelementptr i8, ptr %11, i64 %12
  %14 = load i8, ptr %13, align 1, !tbaa !42
  %15 = zext i8 %14 to i32
  store i32 %15, ptr %4, align 4
  br label %30

16:                                               ; preds = %3
  %17 = load i32, ptr %5, align 4, !tbaa !19
  %18 = icmp eq i32 %17, 2
  br i1 %18, label %19, label %25

19:                                               ; preds = %16
  %20 = load ptr, ptr %6, align 8, !tbaa !3
  %21 = load i64, ptr %7, align 8, !tbaa !28
  %22 = getelementptr i16, ptr %20, i64 %21
  %23 = load i16, ptr %22, align 2, !tbaa !76
  %24 = zext i16 %23 to i32
  store i32 %24, ptr %4, align 4
  br label %30

25:                                               ; preds = %16
  %26 = load ptr, ptr %6, align 8, !tbaa !3
  %27 = load i64, ptr %7, align 8, !tbaa !28
  %28 = getelementptr i32, ptr %26, i64 %27
  %29 = load i32, ptr %28, align 4, !tbaa !19
  store i32 %29, ptr %4, align 4
  br label %30

30:                                               ; preds = %25, %19, %10
  %31 = load i32, ptr %4, align 4
  ret i32 %31
}

; Function Attrs: nounwind uwtable
define internal i64 @big5_encode(ptr noundef %0, ptr noundef %1, i32 noundef %2, ptr noundef %3, ptr noundef %4, i64 noundef %5, ptr noundef %6, i64 noundef %7, i32 noundef %8) #0 {
  %10 = alloca i64, align 8
  %11 = alloca ptr, align 8
  %12 = alloca ptr, align 8
  %13 = alloca i32, align 4
  %14 = alloca ptr, align 8
  %15 = alloca ptr, align 8
  %16 = alloca i64, align 8
  %17 = alloca ptr, align 8
  %18 = alloca i64, align 8
  %19 = alloca i32, align 4
  %20 = alloca i32, align 4
  %21 = alloca i16, align 2
  %22 = alloca i32, align 4
  store ptr %0, ptr %11, align 8, !tbaa !3
  store ptr %1, ptr %12, align 8, !tbaa !21
  store i32 %2, ptr %13, align 4, !tbaa !19
  store ptr %3, ptr %14, align 8, !tbaa !3
  store ptr %4, ptr %15, align 8, !tbaa !66
  store i64 %5, ptr %16, align 8, !tbaa !28
  store ptr %6, ptr %17, align 8, !tbaa !68
  store i64 %7, ptr %18, align 8, !tbaa !28
  store i32 %8, ptr %19, align 4, !tbaa !19
  br label %23

23:                                               ; preds = %170, %168, %9
  %24 = load ptr, ptr %15, align 8, !tbaa !66
  %25 = load i64, ptr %24, align 8, !tbaa !28
  %26 = load i64, ptr %16, align 8, !tbaa !28
  %27 = icmp slt i64 %25, %26
  br i1 %27, label %28, label %171

28:                                               ; preds = %23
  call void @llvm.lifetime.start.p0(i64 4, ptr %20) #9
  %29 = load i32, ptr %13, align 4, !tbaa !19
  %30 = load ptr, ptr %14, align 8, !tbaa !3
  %31 = load ptr, ptr %15, align 8, !tbaa !66
  %32 = load i64, ptr %31, align 8, !tbaa !28
  %33 = call i32 @PyUnicode_READ(i32 noundef %29, ptr noundef %30, i64 noundef %32)
  store i32 %33, ptr %20, align 4, !tbaa !19
  call void @llvm.lifetime.start.p0(i64 2, ptr %21) #9
  %34 = load i32, ptr %20, align 4, !tbaa !19
  %35 = icmp ult i32 %34, 128
  br i1 %35, label %36, label %65

36:                                               ; preds = %28
  br label %37

37:                                               ; preds = %36
  %38 = load i64, ptr %18, align 8, !tbaa !28
  %39 = icmp slt i64 %38, 1
  br i1 %39, label %40, label %41

40:                                               ; preds = %37
  store i64 -1, ptr %10, align 8
  store i32 1, ptr %22, align 4
  br label %168

41:                                               ; preds = %37
  br label %42

42:                                               ; preds = %41
  br label %43

43:                                               ; preds = %42
  %44 = load i32, ptr %20, align 4, !tbaa !19
  %45 = trunc i32 %44 to i8
  %46 = load ptr, ptr %17, align 8, !tbaa !68
  %47 = load ptr, ptr %46, align 8, !tbaa !17
  store i8 %45, ptr %47, align 1, !tbaa !42
  br label %48

48:                                               ; preds = %43
  br label %49

49:                                               ; preds = %48
  %50 = load ptr, ptr %15, align 8, !tbaa !66
  %51 = load i64, ptr %50, align 8, !tbaa !28
  %52 = add i64 %51, 1
  store i64 %52, ptr %50, align 8, !tbaa !28
  br label %53

53:                                               ; preds = %49
  br label %54

54:                                               ; preds = %53
  br label %55

55:                                               ; preds = %54
  %56 = load ptr, ptr %17, align 8, !tbaa !68
  %57 = load ptr, ptr %56, align 8, !tbaa !17
  %58 = getelementptr i8, ptr %57, i64 1
  store ptr %58, ptr %56, align 8, !tbaa !17
  %59 = load i64, ptr %18, align 8, !tbaa !28
  %60 = sub i64 %59, 1
  store i64 %60, ptr %18, align 8, !tbaa !28
  br label %61

61:                                               ; preds = %55
  br label %62

62:                                               ; preds = %61
  br label %63

63:                                               ; preds = %62
  br label %64

64:                                               ; preds = %63
  store i32 2, ptr %22, align 4
  br label %168, !llvm.loop !70

65:                                               ; preds = %28
  %66 = load i32, ptr %20, align 4, !tbaa !19
  %67 = icmp ugt i32 %66, 65535
  br i1 %67, label %68, label %69

68:                                               ; preds = %65
  store i64 1, ptr %10, align 8
  store i32 1, ptr %22, align 4
  br label %168

69:                                               ; preds = %65
  br label %70

70:                                               ; preds = %69
  %71 = load i64, ptr %18, align 8, !tbaa !28
  %72 = icmp slt i64 %71, 2
  br i1 %72, label %73, label %74

73:                                               ; preds = %70
  store i64 -1, ptr %10, align 8
  store i32 1, ptr %22, align 4
  br label %168

74:                                               ; preds = %70
  br label %75

75:                                               ; preds = %74
  br label %76

76:                                               ; preds = %75
  %77 = load i32, ptr %20, align 4, !tbaa !19
  %78 = lshr i32 %77, 8
  %79 = zext i32 %78 to i64
  %80 = getelementptr [256 x %struct.unim_index], ptr @big5_encmap, i64 0, i64 %79
  %81 = getelementptr inbounds nuw %struct.unim_index, ptr %80, i32 0, i32 0
  %82 = load ptr, ptr %81, align 16, !tbaa !71
  %83 = icmp ne ptr %82, null
  br i1 %83, label %84, label %129

84:                                               ; preds = %76
  %85 = load i32, ptr %20, align 4, !tbaa !19
  %86 = and i32 %85, 255
  %87 = load i32, ptr %20, align 4, !tbaa !19
  %88 = lshr i32 %87, 8
  %89 = zext i32 %88 to i64
  %90 = getelementptr [256 x %struct.unim_index], ptr @big5_encmap, i64 0, i64 %89
  %91 = getelementptr inbounds nuw %struct.unim_index, ptr %90, i32 0, i32 1
  %92 = load i8, ptr %91, align 8, !tbaa !74
  %93 = zext i8 %92 to i32
  %94 = icmp uge i32 %86, %93
  br i1 %94, label %95, label %129

95:                                               ; preds = %84
  %96 = load i32, ptr %20, align 4, !tbaa !19
  %97 = and i32 %96, 255
  %98 = load i32, ptr %20, align 4, !tbaa !19
  %99 = lshr i32 %98, 8
  %100 = zext i32 %99 to i64
  %101 = getelementptr [256 x %struct.unim_index], ptr @big5_encmap, i64 0, i64 %100
  %102 = getelementptr inbounds nuw %struct.unim_index, ptr %101, i32 0, i32 2
  %103 = load i8, ptr %102, align 1, !tbaa !75
  %104 = zext i8 %103 to i32
  %105 = icmp ule i32 %97, %104
  br i1 %105, label %106, label %129

106:                                              ; preds = %95
  %107 = load i32, ptr %20, align 4, !tbaa !19
  %108 = lshr i32 %107, 8
  %109 = zext i32 %108 to i64
  %110 = getelementptr [256 x %struct.unim_index], ptr @big5_encmap, i64 0, i64 %109
  %111 = getelementptr inbounds nuw %struct.unim_index, ptr %110, i32 0, i32 0
  %112 = load ptr, ptr %111, align 16, !tbaa !71
  %113 = load i32, ptr %20, align 4, !tbaa !19
  %114 = and i32 %113, 255
  %115 = load i32, ptr %20, align 4, !tbaa !19
  %116 = lshr i32 %115, 8
  %117 = zext i32 %116 to i64
  %118 = getelementptr [256 x %struct.unim_index], ptr @big5_encmap, i64 0, i64 %117
  %119 = getelementptr inbounds nuw %struct.unim_index, ptr %118, i32 0, i32 1
  %120 = load i8, ptr %119, align 8, !tbaa !74
  %121 = zext i8 %120 to i32
  %122 = sub i32 %114, %121
  %123 = zext i32 %122 to i64
  %124 = getelementptr i16, ptr %112, i64 %123
  %125 = load i16, ptr %124, align 2, !tbaa !76
  store i16 %125, ptr %21, align 2, !tbaa !76
  %126 = zext i16 %125 to i32
  %127 = icmp ne i32 %126, 65535
  br i1 %127, label %128, label %129

128:                                              ; preds = %106
  br label %130

129:                                              ; preds = %106, %95, %84, %76
  store i64 1, ptr %10, align 8
  store i32 1, ptr %22, align 4
  br label %168

130:                                              ; preds = %128
  br label %131

131:                                              ; preds = %130
  %132 = load i16, ptr %21, align 2, !tbaa !76
  %133 = zext i16 %132 to i32
  %134 = ashr i32 %133, 8
  %135 = trunc i32 %134 to i8
  %136 = load ptr, ptr %17, align 8, !tbaa !68
  %137 = load ptr, ptr %136, align 8, !tbaa !17
  %138 = getelementptr i8, ptr %137, i64 0
  store i8 %135, ptr %138, align 1, !tbaa !42
  br label %139

139:                                              ; preds = %131
  br label %140

140:                                              ; preds = %139
  br label %141

141:                                              ; preds = %140
  %142 = load i16, ptr %21, align 2, !tbaa !76
  %143 = zext i16 %142 to i32
  %144 = and i32 %143, 255
  %145 = trunc i32 %144 to i8
  %146 = load ptr, ptr %17, align 8, !tbaa !68
  %147 = load ptr, ptr %146, align 8, !tbaa !17
  %148 = getelementptr i8, ptr %147, i64 1
  store i8 %145, ptr %148, align 1, !tbaa !42
  br label %149

149:                                              ; preds = %141
  br label %150

150:                                              ; preds = %149
  br label %151

151:                                              ; preds = %150
  br label %152

152:                                              ; preds = %151
  %153 = load ptr, ptr %15, align 8, !tbaa !66
  %154 = load i64, ptr %153, align 8, !tbaa !28
  %155 = add i64 %154, 1
  store i64 %155, ptr %153, align 8, !tbaa !28
  br label %156

156:                                              ; preds = %152
  br label %157

157:                                              ; preds = %156
  br label %158

158:                                              ; preds = %157
  %159 = load ptr, ptr %17, align 8, !tbaa !68
  %160 = load ptr, ptr %159, align 8, !tbaa !17
  %161 = getelementptr i8, ptr %160, i64 2
  store ptr %161, ptr %159, align 8, !tbaa !17
  %162 = load i64, ptr %18, align 8, !tbaa !28
  %163 = sub i64 %162, 2
  store i64 %163, ptr %18, align 8, !tbaa !28
  br label %164

164:                                              ; preds = %158
  br label %165

165:                                              ; preds = %164
  br label %166

166:                                              ; preds = %165
  br label %167

167:                                              ; preds = %166
  store i32 0, ptr %22, align 4
  br label %168

168:                                              ; preds = %167, %129, %73, %68, %64, %40
  call void @llvm.lifetime.end.p0(i64 2, ptr %21) #9
  call void @llvm.lifetime.end.p0(i64 4, ptr %20) #9
  %169 = load i32, ptr %22, align 4
  switch i32 %169, label %174 [
    i32 0, label %170
    i32 1, label %172
    i32 2, label %23
  ]

170:                                              ; preds = %168
  br label %23, !llvm.loop !70

171:                                              ; preds = %23
  store i64 0, ptr %10, align 8
  br label %172

172:                                              ; preds = %171, %168
  %173 = load i64, ptr %10, align 8
  ret i64 %173

174:                                              ; preds = %168
  unreachable
}